target datalayout = "e-m:e-p270:32:32-p271:32:32-p272:64:64-i64:64-i128:128-f80:128-n8:16:32:64-S128"
target triple = "x86_64-pc-linux-gnu"

%struct.JSValue = type { %union.JSValueUnion, i64 }
%union.JSValueUnion = type { double }

; Function Attrs: nounwind uwtable
define internal { i64, i64 } @__JS_NewFloat64(ptr noundef %0, double noundef %1) #0 {
  %3 = alloca %struct.JSValue, align 8
  %4 = alloca ptr, align 8
  %5 = alloca double, align 8
  store ptr %0, ptr %4, align 8
  store double %1, ptr %5, align 8
  %6 = getelementptr inbounds %struct.JSValue, ptr %3, i32 0, i32 1
  store i64 7, ptr %6, align 8
  %7 = load double, ptr %5, align 8
  %8 = getelementptr inbounds %struct.JSValue, ptr %3, i32 0, i32 0
  store double %7, ptr %8, align 8
  %9 = load { i64, i64 }, ptr %3, align 8
  ret { i64, i64 } %9
}

; Function Attrs: nounwind uwtable
define internal i32 @JS_IsBigInt(ptr noundef %0, i64 %1, i64 %2) #0 {
  %4 = alloca %struct.JSValue, align 8
  %5 = alloca ptr, align 8
  %6 = alloca i32, align 4
  %7 = getelementptr inbounds { i64, i64 }, ptr %4, i32 0, i32 0
  store i64 %1, ptr %7, align 8
  %8 = getelementptr inbounds { i64, i64 }, ptr %4, i32 0, i32 1
  store i64 %2, ptr %8, align 8
  store ptr %0, ptr %5, align 8
  %9 = getelementptr inbounds %struct.JSValue, ptr %4, i32 0, i32 1
  %10 = load i64, ptr %9, align 8
  %11 = trunc i64 %10 to i32
  store i32 %11, ptr %6, align 4
  %12 = load i32, ptr %6, align 4
  %13 = icmp eq i32 %12, -10
  %14 = zext i1 %13 to i32
  ret i32 %14
}

; Function Attrs: nounwind uwtable
define internal { i64, i64 } @js_os_seek(ptr noundef %0, i64 %1, i64 %2, i32 noundef %3, ptr noundef %4) #0 {
  %6 = alloca %struct.JSValue, align 8
  %7 = alloca ptr, align 8
  %8 = alloca i32, align 4
  %9 = alloca %struct.JSValue, align 8
  %10 = alloca ptr, align 8
  %11 = alloca i64, align 8
  %12 = alloca %struct.JSValue, align 8
  %13 = alloca %struct.JSValue, align 8
  %14 = alloca %struct.JSValue, align 8
  %15 = alloca %struct.JSValue, align 8
  %16 = alloca ptr, align 8
  %17 = alloca i32, align 4
  %18 = alloca ptr, align 8
  %19 = alloca i32, align 4
  %20 = alloca i32, align 4
  %21 = alloca i64, align 8
  %22 = alloca i64, align 8
  %23 = alloca i32, align 4
  %24 = getelementptr inbounds { i64, i64 }, ptr %15, i32 0, i32 0
  store i64 %1, ptr %24, align 8
  %25 = getelementptr inbounds { i64, i64 }, ptr %15, i32 0, i32 1
  store i64 %2, ptr %25, align 8
  store ptr %0, ptr %16, align 8
  store i32 %3, ptr %17, align 4
  store ptr %4, ptr %18, align 8
  %26 = load ptr, ptr %16, align 8
  %27 = load ptr, ptr %18, align 8
  %28 = getelementptr %struct.JSValue, ptr %27, i64 0
  %29 = getelementptr inbounds { i64, i64 }, ptr %28, i32 0, i32 0
  %30 = load i64, ptr %29, align 8
  %31 = getelementptr inbounds { i64, i64 }, ptr %28, i32 0, i32 1
  %32 = load i64, ptr %31, align 8
  %33 = call i32 @JS_ToInt32(ptr noundef %26, ptr noundef %19, i64 %30, i64 %32)
  %34 = icmp ne i32 %33, 0
  br i1 %34, label %35, label %38

35:                                               ; preds = %5
  %36 = getelementptr inbounds %struct.JSValue, ptr %14, i32 0, i32 0
  store i32 0, ptr %36, align 8
  %37 = getelementptr inbounds %struct.JSValue, ptr %14, i32 0, i32 1
  store i64 6, ptr %37, align 8
  br label %127

38:                                               ; preds = %5
  %39 = load ptr, ptr %16, align 8
  %40 = load ptr, ptr %18, align 8
  %41 = getelementptr %struct.JSValue, ptr %40, i64 1
  %42 = getelementptr inbounds { i64, i64 }, ptr %41, i32 0, i32 0
  %43 = load i64, ptr %42, align 8
  %44 = getelementptr inbounds { i64, i64 }, ptr %41, i32 0, i32 1
  %45 = load i64, ptr %44, align 8
  %46 = call i32 @JS_IsBigInt(ptr noundef %39, i64 %43, i64 %45)
  store i32 %46, ptr %23, align 4
  %47 = load ptr, ptr %16, align 8
  %48 = load ptr, ptr %18, align 8
  %49 = getelementptr %struct.JSValue, ptr %48, i64 1
  %50 = getelementptr inbounds { i64, i64 }, ptr %49, i32 0, i32 0
  %51 = load i64, ptr %50, align 8
  %52 = getelementptr inbounds { i64, i64 }, ptr %49, i32 0, i32 1
  %53 = load i64, ptr %52, align 8
  %54 = call i32 @JS_ToInt64Ext(ptr noundef %47, ptr noundef %21, i64 %51, i64 %53)
  %55 = icmp ne i32 %54, 0
  br i1 %55, label %56, label %59

56:                                               ; preds = %38
  %57 = getelementptr inbounds %struct.JSValue, ptr %14, i32 0, i32 0
  store i32 0, ptr %57, align 8
  %58 = getelementptr inbounds %struct.JSValue, ptr %14, i32 0, i32 1
  store i64 6, ptr %58, align 8
  br label %127

59:                                               ; preds = %38
  %60 = load ptr, ptr %16, align 8
  %61 = load ptr, ptr %18, align 8
  %62 = getelementptr %struct.JSValue, ptr %61, i64 2
  %63 = getelementptr inbounds { i64, i64 }, ptr %62, i32 0, i32 0
  %64 = load i64, ptr %63, align 8
  %65 = getelementptr inbounds { i64, i64 }, ptr %62, i32 0, i32 1
  %66 = load i64, ptr %65, align 8
  %67 = call i32 @JS_ToInt32(ptr noundef %60, ptr noundef %20, i64 %64, i64 %66)
  %68 = icmp ne i32 %67, 0
  br i1 %68, label %69, label %72

69:                                               ; preds = %59
  %70 = getelementptr inbounds %struct.JSValue, ptr %14, i32 0, i32 0
  store i32 0, ptr %70, align 8
  %71 = getelementptr inbounds %struct.JSValue, ptr %14, i32 0, i32 1
  store i64 6, ptr %71, align 8
  br label %127

72:                                               ; preds = %59
  %73 = load i32, ptr %19, align 4
  %74 = load i64, ptr %21, align 8
  %75 = load i32, ptr %20, align 4
  %76 = call i64 @lseek(i32 noundef %73, i64 noundef %74, i32 noundef %75) #12
  store i64 %76, ptr %22, align 8
  %77 = load i64, ptr %22, align 8
  %78 = icmp eq i64 %77, -1
  br i1 %78, label %79, label %84

79:                                               ; preds = %72
  %80 = call ptr @__errno_location() #10
  %81 = load i32, ptr %80, align 4
  %82 = sub i32 0, %81
  %83 = sext i32 %82 to i64
  store i64 %83, ptr %22, align 8
  br label %84

84:                                               ; preds = %79, %72
  %85 = load i32, ptr %23, align 4
  %86 = icmp ne i32 %85, 0
  br i1 %86, label %87, label %95

87:                                               ; preds = %84
  %88 = load ptr, ptr %16, align 8
  %89 = load i64, ptr %22, align 8
  %90 = call { i64, i64 } @JS_NewBigInt64(ptr noundef %88, i64 noundef %89)
  %91 = getelementptr inbounds { i64, i64 }, ptr %14, i32 0, i32 0
  %92 = extractvalue { i64, i64 } %90, 0
  store i64 %92, ptr %91, align 8
  %93 = getelementptr inbounds { i64, i64 }, ptr %14, i32 0, i32 1
  %94 = extractvalue { i64, i64 } %90, 1
  store i64 %94, ptr %93, align 8
  br label %127

95:                                               ; preds = %84
  %96 = load ptr, ptr %16, align 8
  %97 = load i64, ptr %22, align 8
  store ptr %96, ptr %10, align 8
  store i64 %97, ptr %11, align 8
  %98 = load i64, ptr %11, align 8
  %99 = load i64, ptr %11, align 8
  %100 = trunc i64 %99 to i32
  %101 = sext i32 %100 to i64
  %102 = icmp eq i64 %98, %101
  br i1 %102, label %103, label %113

103:                                              ; preds = %95
  %104 = load ptr, ptr %10, align 8
  %105 = load i64, ptr %11, align 8
  %106 = trunc i64 %105 to i32
  store ptr %104, ptr %7, align 8
  store i32 %106, ptr %8, align 4
  %107 = load i32, ptr %8, align 4
  store i32 %107, ptr %6, align 8
  %108 = getelementptr inbounds %struct.JSValue, ptr %6, i32 0, i32 1
  store i64 0, ptr %108, align 8
  %109 = load { i64, i64 }, ptr %6, align 8
  %110 = extractvalue { i64, i64 } %109, 0
  store i64 %110, ptr %12, align 8
  %111 = getelementptr inbounds { i64, i64 }, ptr %12, i32 0, i32 1
  %112 = extractvalue { i64, i64 } %109, 1
  store i64 %112, ptr %111, align 8
  call void @llvm.memcpy.p0.p0.i64(ptr align 8 %9, ptr align 8 %12, i64 16, i1 false)
  br label %121

113:                                              ; preds = %95
  %114 = load ptr, ptr %10, align 8
  %115 = load i64, ptr %11, align 8
  %116 = sitofp i64 %115 to double
  %117 = call { i64, i64 } @__JS_NewFloat64(ptr noundef %114, double noundef %116)
  %118 = extractvalue { i64, i64 } %117, 0
  store i64 %118, ptr %13, align 8
  %119 = getelementptr inbounds { i64, i64 }, ptr %13, i32 0, i32 1
  %120 = extractvalue { i64, i64 } %117, 1
  store i64 %120, ptr %119, align 8
  call void @llvm.memcpy.p0.p0.i64(ptr align 8 %9, ptr align 8 %13, i64 16, i1 false)
  br label %121

121:                                              ; preds = %113, %103
  %122 = load { i64, i64 }, ptr %9, align 8
  %123 = getelementptr inbounds { i64, i64 }, ptr %14, i32 0, i32 0
  %124 = extractvalue { i64, i64 } %122, 0
  store i64 %124, ptr %123, align 8
  %125 = getelementptr inbounds { i64, i64 }, ptr %14, i32 0, i32 1
  %126 = extractvalue { i64, i64 } %122, 1
  store i64 %126, ptr %125, align 8
  br label %127

127:                                              ; preds = %121, %87, %69, %56, %35
  %128 = load { i64, i64 }, ptr %14, align 8
  ret { i64, i64 } %128
}