; Function Attrs: nounwind uwtable
define internal { i64, i64 } @js_os_seek(ptr noundef %0, i64 %1, i64 %2, i32 %3, ptr nocapture noundef readonly %4) #0 {
  %6 = alloca i32, align 4
  %7 = alloca i32, align 4
  %8 = alloca i64, align 8
  %9 = load i64, ptr %4, align 8
  %10 = getelementptr inbounds i8, ptr %4, i64 8
  %11 = load i64, ptr %10, align 8
  %12 = call i32 @JS_ToInt32(ptr noundef %0, ptr noundef nonnull %6, i64 %9, i64 %11) #29
  %.not = icmp eq i32 %12, 0
  br i1 %.not, label %13, label %47

13:                                               ; preds = %5
  %14 = getelementptr i8, ptr %4, i64 16
  %15 = getelementptr i8, ptr %4, i64 24
  %16 = load i64, ptr %15, align 8
  %17 = and i64 %16, 4294967295
  %.not42 = icmp eq i64 %17, 4294967286
  %18 = load i64, ptr %14, align 8
  %19 = call i32 @JS_ToInt64Ext(ptr noundef %0, ptr noundef nonnull %8, i64 %18, i64 %16) #29
  %.not39 = icmp eq i32 %19, 0
  br i1 %.not39, label %20, label %47

20:                                               ; preds = %13
  %21 = getelementptr i8, ptr %4, i64 32
  %22 = load i64, ptr %21, align 8
  %23 = getelementptr i8, ptr %4, i64 40
  %24 = load i64, ptr %23, align 8
  %25 = call i32 @JS_ToInt32(ptr noundef %0, ptr noundef nonnull %7, i64 %22, i64 %24) #29
  %.not40 = icmp eq i32 %25, 0
  br i1 %.not40, label %26, label %47

26:                                               ; preds = %20
  %27 = load i32, ptr %6, align 4
  %28 = load i64, ptr %8, align 8
  %29 = load i32, ptr %7, align 4
  %30 = call i64 @lseek(i32 noundef %27, i64 noundef %28, i32 noundef %29) #29
  %31 = icmp eq i64 %30, -1
  br i1 %31, label %32, label %37

32:                                               ; preds = %26
  %33 = tail call ptr @__errno_location() #28
  %34 = load i32, ptr %33, align 4
  %35 = sub i32 0, %34
  %36 = sext i32 %35 to i64
  br label %37

37:                                               ; preds = %32, %26
  %.0 = phi i64 [ %36, %32 ], [ %30, %26 ]
  br i1 %.not42, label %38, label %42

38:                                               ; preds = %37
  %39 = call { i64, i64 } @JS_NewBigInt64(ptr noundef %0, i64 noundef %.0) #29
  %40 = extractvalue { i64, i64 } %39, 0
  %.sroa.6.0.extract.shift = and i64 %40, -4294967296
  %41 = extractvalue { i64, i64 } %39, 1
  br label %47

42:                                               ; preds = %37
  %43 = add i64 %.0, 2147483648
  %44 = icmp ult i64 %43, 4294967296
  %.sroa.036.0.insert.ext = and i64 %.0, 4294967295
  %45 = sitofp i64 %.0 to double
  %46 = bitcast double %45 to i64
  %.sroa.032.0 = select i1 %44, i64 %.sroa.036.0.insert.ext, i64 %46
  %.sroa.3.0 = select i1 %44, i64 0, i64 7
  %.sroa.6.0.extract.shift15 = and i64 %.sroa.032.0, -4294967296
  br label %47

47:                                               ; preds = %20, %13, %5, %42, %38
  %.sroa.013.0 = phi i64 [ %40, %38 ], [ %.sroa.032.0, %42 ], [ 0, %5 ], [ 0, %13 ], [ 0, %20 ]
  %.sroa.6.sroa.0.0 = phi i64 [ %.sroa.6.0.extract.shift, %38 ], [ %.sroa.6.0.extract.shift15, %42 ], [ 0, %5 ], [ 0, %13 ], [ 0, %20 ]
  %.sroa.6.sroa.3.0 = phi i64 [ %41, %38 ], [ %.sroa.3.0, %42 ], [ 6, %5 ], [ 6, %13 ], [ 6, %20 ]
  %.sroa.013.0.insert.ext = and i64 %.sroa.013.0, 4294967295
  %.sroa.013.0.insert.insert = or disjoint i64 %.sroa.6.sroa.0.0, %.sroa.013.0.insert.ext
  %.fca.0.insert = insertvalue { i64, i64 } poison, i64 %.sroa.013.0.insert.insert, 0
  %.fca.1.insert = insertvalue { i64, i64 } %.fca.0.insert, i64 %.sroa.6.sroa.3.0, 1
  ret { i64, i64 } %.fca.1.insert
}